; Function Attrs: mustprogress nounwind uwtable
define hidden void @_ZN19OpenColorIO_v2_4dev22LogCameraTransformImpl20setLogSideSlopeValueERA3_Kd(ptr noundef nonnull align 8 dereferenceable(264) %this, ptr noundef nonnull align 8 dereferenceable(24) %values) unnamed_addr #3 align 2 personality ptr @__gxx_personality_v0 {
entry:
  %m_data.i = getelementptr inbounds i8, ptr %this, i64 8
  invoke void @_ZN19OpenColorIO_v2_4dev9LogOpData8setValueENS_18LogAffineParameterERA3_Kd(ptr noundef nonnull align 8 dereferenceable(252) %m_data.i, i32 noundef 0, ptr noundef nonnull align 8 dereferenceable(24) %values)
          to label %invoke.cont unwind label %terminate.lpad

invoke.cont:                                      ; preds = %entry
  ret void

terminate.lpad:                                   ; preds = %entry
  %0 = landingpad { ptr, i32 }
          catch ptr null
  %1 = extractvalue { ptr, i32 } %0, 0
  tail call void @__clang_call_terminate(ptr %1) #18
  unreachable
}